(dp1
S'failed'
p2
(lp3
S'200'
p4
asS'source_names'
p5
(lp6
S'.'
aS'200'
p7
asS'ids'
p8
(dp9
I1
(S'/home/talissa/repos/crabpy/crabpy/tests/gateway/test_capakey.py'
S'crabpy.tests.gateway.test_capakey'
p10
S'AfdelingTests.test_check_gateway_not_set'
tp11
sI2
(S'/home/talissa/repos/crabpy/crabpy/tests/gateway/test_capakey.py'
g10
S'AfdelingTests.test_fully_initialised'
tp12
sI3
(S'/home/talissa/repos/crabpy/crabpy/tests/gateway/test_capakey.py'
g10
S'AfdelingTests.test_lazy_load'
tp13
sI4
(S'/home/talissa/repos/crabpy/crabpy/tests/gateway/test_capakey.py'
g10
S'AfdelingTests.test_secties'
tp14
sI5
(S'/home/talissa/repos/crabpy/crabpy/tests/gateway/test_capakey.py'
g10
S'AfdelingTests.test_to_string_not_fully_initialised'
tp15
sI6
(S'/home/talissa/repos/crabpy/crabpy/tests/gateway/test_capakey.py'
g10
S'CapakeyCachedGatewayTests.test_cache_is_configured'
tp16
sI7
(S'/home/talissa/repos/crabpy/crabpy/tests/gateway/test_capakey.py'
g10
S'CapakeyCachedGatewayTests.test_get_gemeente_by_id'
tp17
sI8
(S'/home/talissa/repos/crabpy/crabpy/tests/gateway/test_capakey.py'
g10
S'CapakeyCachedGatewayTests.test_get_kadastrale_afdeling_by_id'
tp18
sI9
(S'/home/talissa/repos/crabpy/crabpy/tests/gateway/test_capakey.py'
g10
S'CapakeyCachedGatewayTests.test_get_perceel_by_capakey'
tp19
sI10
(S'/home/talissa/repos/crabpy/crabpy/tests/gateway/test_capakey.py'
g10
S'CapakeyCachedGatewayTests.test_get_perceel_by_id_and_sectie'
tp20
sI11
(S'/home/talissa/repos/crabpy/crabpy/tests/gateway/test_capakey.py'
g10
S'CapakeyCachedGatewayTests.test_get_perceel_by_percid'
tp21
sI12
(S'/home/talissa/repos/crabpy/crabpy/tests/gateway/test_capakey.py'
g10
S'CapakeyCachedGatewayTests.test_get_sectie_by_id_and_afdeling'
tp22
sI13
(S'/home/talissa/repos/crabpy/crabpy/tests/gateway/test_capakey.py'
g10
S'CapakeyCachedGatewayTests.test_list_afdelingen'
tp23
sI14
(S'/home/talissa/repos/crabpy/crabpy/tests/gateway/test_capakey.py'
g10
S'CapakeyCachedGatewayTests.test_list_afdelingen_by_gemeente'
tp24
sI15
(S'/home/talissa/repos/crabpy/crabpy/tests/gateway/test_capakey.py'
g10
S'CapakeyCachedGatewayTests.test_list_gemeenten'
tp25
sI16
(S'/home/talissa/repos/crabpy/crabpy/tests/gateway/test_capakey.py'
g10
S'CapakeyCachedGatewayTests.test_list_gemeenten_different_sort'
tp26
sI17
(S'/home/talissa/repos/crabpy/crabpy/tests/gateway/test_capakey.py'
g10
S'CapakeyCachedGatewayTests.test_list_percelen_by_sectie'
tp27
sI18
(S'/home/talissa/repos/crabpy/crabpy/tests/gateway/test_capakey.py'
g10
S'CapakeyCachedGatewayTests.test_list_secties_by_afdeling_id'
tp28
sI19
(S'/home/talissa/repos/crabpy/crabpy/tests/gateway/test_capakey.py'
g10
S'CapakeyGatewayTests.test_get_gemeente_by_id'
tp29
sI20
(S'/home/talissa/repos/crabpy/crabpy/tests/gateway/test_capakey.py'
g10
S'CapakeyGatewayTests.test_get_gemeente_by_invalid_id'
tp30
sI21
(S'/home/talissa/repos/crabpy/crabpy/tests/gateway/test_capakey.py'
g10
S'CapakeyGatewayTests.test_get_kadastrale_afdeling_by_id'
tp31
sI22
(S'/home/talissa/repos/crabpy/crabpy/tests/gateway/test_capakey.py'
g10
S'CapakeyGatewayTests.test_get_perceel_by_capakey'
tp32
sI23
(S'/home/talissa/repos/crabpy/crabpy/tests/gateway/test_capakey.py'
g10
S'CapakeyGatewayTests.test_get_perceel_by_id_and_sectie'
tp33
sI24
(S'/home/talissa/repos/crabpy/crabpy/tests/gateway/test_capakey.py'
g10
S'CapakeyGatewayTests.test_get_perceel_by_percid'
tp34
sI25
(S'/home/talissa/repos/crabpy/crabpy/tests/gateway/test_capakey.py'
g10
S'CapakeyGatewayTests.test_get_sectie_by_id_and_afdeling'
tp35
sI26
(S'/home/talissa/repos/crabpy/crabpy/tests/gateway/test_capakey.py'
g10
S'CapakeyGatewayTests.test_list_afdelingen'
tp36
sI27
(S'/home/talissa/repos/crabpy/crabpy/tests/gateway/test_capakey.py'
g10
S'CapakeyGatewayTests.test_list_afdelingen_by_gemeente'
tp37
sI28
(S'/home/talissa/repos/crabpy/crabpy/tests/gateway/test_capakey.py'
g10
S'CapakeyGatewayTests.test_list_afdelingen_by_gemeente_id'
tp38
sI29
(S'/home/talissa/repos/crabpy/crabpy/tests/gateway/test_capakey.py'
g10
S'CapakeyGatewayTests.test_list_gemeenten'
tp39
sI30
(S'/home/talissa/repos/crabpy/crabpy/tests/gateway/test_capakey.py'
g10
S'CapakeyGatewayTests.test_list_gemeenten_invalid_auth'
tp40
sI31
(S'/home/talissa/repos/crabpy/crabpy/tests/gateway/test_capakey.py'
g10
S'CapakeyGatewayTests.test_list_percelen_by_sectie'
tp41
sI32
(S'/home/talissa/repos/crabpy/crabpy/tests/gateway/test_capakey.py'
g10
S'CapakeyGatewayTests.test_list_secties_by_afdeling'
tp42
sI33
(S'/home/talissa/repos/crabpy/crabpy/tests/gateway/test_capakey.py'
g10
S'CapakeyGatewayTests.test_list_secties_by_afdeling_id'
tp43
sI34
(S'/home/talissa/repos/crabpy/crabpy/tests/gateway/test_capakey.py'
g10
S'GemeenteTests.test_afdelingen'
tp44
sI35
(S'/home/talissa/repos/crabpy/crabpy/tests/gateway/test_capakey.py'
g10
S'GemeenteTests.test_check_gateway_not_set'
tp45
sI36
(S'/home/talissa/repos/crabpy/crabpy/tests/gateway/test_capakey.py'
g10
S'GemeenteTests.test_fully_initialised'
tp46
sI37
(S'/home/talissa/repos/crabpy/crabpy/tests/gateway/test_capakey.py'
g10
S'GemeenteTests.test_lazy_load'
tp47
sI38
(S'/home/talissa/repos/crabpy/crabpy/tests/gateway/test_capakey.py'
g10
S'GemeenteTests.test_str_and_repr_dont_lazy_load'
tp48
sI39
(S'/home/talissa/repos/crabpy/crabpy/tests/gateway/test_capakey.py'
g10
S'PerceelTests.test_check_gateway_not_set'
tp49
sI40
(S'/home/talissa/repos/crabpy/crabpy/tests/gateway/test_capakey.py'
g10
S'PerceelTests.test_fully_initialised'
tp50
sI41
(S'/home/talissa/repos/crabpy/crabpy/tests/gateway/test_capakey.py'
g10
S'PerceelTests.test_lazy_load'
tp51
sI42
(S'/home/talissa/repos/crabpy/crabpy/tests/gateway/test_capakey.py'
g10
S'PerceelTests.test_parse_capakey'
tp52
sI43
(S'/home/talissa/repos/crabpy/crabpy/tests/gateway/test_capakey.py'
g10
S'PerceelTests.test_parse_capakey_other_sectie'
tp53
sI44
(S'/home/talissa/repos/crabpy/crabpy/tests/gateway/test_capakey.py'
g10
S'PerceelTests.test_parse_invalid_capakey'
tp54
sI45
(S'/home/talissa/repos/crabpy/crabpy/tests/gateway/test_capakey.py'
g10
S'SectieTests.test_check_gateway_not_set'
tp55
sI46
(S'/home/talissa/repos/crabpy/crabpy/tests/gateway/test_capakey.py'
g10
S'SectieTests.test_fully_initialised'
tp56
sI47
(S'/home/talissa/repos/crabpy/crabpy/tests/gateway/test_capakey.py'
g10
S'SectieTests.test_lazy_load'
tp57
sI48
(S'/home/talissa/repos/crabpy/crabpy/tests/gateway/test_capakey.py'
g10
S'SectieTests.test_percelen'
tp58
sI49
(S'/home/talissa/repos/crabpy/crabpy/tests/gateway/test_crab.py'
S'crabpy.tests.gateway.test_crab'
p59
S'CrabCachedGatewayTests.test_cache_is_configured'
tp60
sI50
(S'/home/talissa/repos/crabpy/crabpy/tests/gateway/test_crab.py'
g59
S'CrabCachedGatewayTests.test_get_gemeente_by_id'
tp61
sI51
(S'/home/talissa/repos/crabpy/crabpy/tests/gateway/test_crab.py'
g59
S'CrabCachedGatewayTests.test_get_gemeente_by_niscode'
tp62
sI52
(S'/home/talissa/repos/crabpy/crabpy/tests/gateway/test_crab.py'
g59
S'CrabCachedGatewayTests.test_get_huisnummer_by_id'
tp63
sI53
(S'/home/talissa/repos/crabpy/crabpy/tests/gateway/test_crab.py'
g59
S'CrabCachedGatewayTests.test_get_huisnummer_by_nummer_and_straat'
tp64
sI54
(S'/home/talissa/repos/crabpy/crabpy/tests/gateway/test_crab.py'
g59
S'CrabCachedGatewayTests.test_get_postkanton_by_huisnummer'
tp65
sI55
(S'/home/talissa/repos/crabpy/crabpy/tests/gateway/test_crab.py'
g59
S'CrabCachedGatewayTests.test_get_straat_by_id'
tp66
sI56
(S'/home/talissa/repos/crabpy/crabpy/tests/gateway/test_crab.py'
g59
S'CrabCachedGatewayTests.test_get_wegobject_by_id'
tp67
sI57
(S'/home/talissa/repos/crabpy/crabpy/tests/gateway/test_crab.py'
g59
S'CrabCachedGatewayTests.test_get_wegsegment_by_id'
tp68
sI58
(S'/home/talissa/repos/crabpy/crabpy/tests/gateway/test_crab.py'
g59
S'CrabCachedGatewayTests.test_list_aardadressen'
tp69
sI59
(S'/home/talissa/repos/crabpy/crabpy/tests/gateway/test_crab.py'
g59
S'CrabCachedGatewayTests.test_list_aardadressen_different_sort'
tp70
sI60
(S'/home/talissa/repos/crabpy/crabpy/tests/gateway/test_crab.py'
g59
S'CrabCachedGatewayTests.test_list_aardgebouwen'
tp71
sI61
(S'/home/talissa/repos/crabpy/crabpy/tests/gateway/test_crab.py'
g59
S'CrabCachedGatewayTests.test_list_aardgebouwen_different_sort'
tp72
sI62
(S'/home/talissa/repos/crabpy/crabpy/tests/gateway/test_crab.py'
g59
S'CrabCachedGatewayTests.test_list_aardterreinobjecten'
tp73
sI63
(S'/home/talissa/repos/crabpy/crabpy/tests/gateway/test_crab.py'
g59
S'CrabCachedGatewayTests.test_list_aardterreinobjecten_different_sort'
tp74
sI64
(S'/home/talissa/repos/crabpy/crabpy/tests/gateway/test_crab.py'
g59
S'CrabCachedGatewayTests.test_list_aardwegobjecten'
tp75
sI65
(S'/home/talissa/repos/crabpy/crabpy/tests/gateway/test_crab.py'
g59
S'CrabCachedGatewayTests.test_list_aardwegobjecten_different_sort'
tp76
sI66
(S'/home/talissa/repos/crabpy/crabpy/tests/gateway/test_crab.py'
g59
S'CrabCachedGatewayTests.test_list_bewerkingen'
tp77
sI67
(S'/home/talissa/repos/crabpy/crabpy/tests/gateway/test_crab.py'
g59
S'CrabCachedGatewayTests.test_list_bewerkingen_different_sort'
tp78
sI68
(S'/home/talissa/repos/crabpy/crabpy/tests/gateway/test_crab.py'
g59
S'CrabCachedGatewayTests.test_list_gemeenten'
tp79
sI69
(S'/home/talissa/repos/crabpy/crabpy/tests/gateway/test_crab.py'
g59
S'CrabCachedGatewayTests.test_list_gemeenten_different_sort'
tp80
sI70
(S'/home/talissa/repos/crabpy/crabpy/tests/gateway/test_crab.py'
g59
S'CrabCachedGatewayTests.test_list_geometriemethodegebouwen'
tp81
sI71
(S'/home/talissa/repos/crabpy/crabpy/tests/gateway/test_crab.py'
g59
S'CrabCachedGatewayTests.test_list_geometriemethodegebouwen_different_sort'
tp82
sI72
(S'/home/talissa/repos/crabpy/crabpy/tests/gateway/test_crab.py'
g59
S'CrabCachedGatewayTests.test_list_geometriemethodewegsegmenten'
tp83
sI73
(S'/home/talissa/repos/crabpy/crabpy/tests/gateway/test_crab.py'
g59
S'CrabCachedGatewayTests.test_list_geometriemethodewegsegmenten_different_sort'
tp84
sI74
(S'/home/talissa/repos/crabpy/crabpy/tests/gateway/test_crab.py'
g59
S'CrabCachedGatewayTests.test_list_gewesten'
tp85
sI75
(S'/home/talissa/repos/crabpy/crabpy/tests/gateway/test_crab.py'
g59
S'CrabCachedGatewayTests.test_list_gewesten_different_sort'
tp86
sI76
(S'/home/talissa/repos/crabpy/crabpy/tests/gateway/test_crab.py'
g59
S'CrabCachedGatewayTests.test_list_herkomstadrespositie'
tp87
sI77
(S'/home/talissa/repos/crabpy/crabpy/tests/gateway/test_crab.py'
g59
S'CrabCachedGatewayTests.test_list_herkomstadrespositie_different_sort'
tp88
sI78
(S'/home/talissa/repos/crabpy/crabpy/tests/gateway/test_crab.py'
g59
S'CrabCachedGatewayTests.test_list_huisnummers_by_straat'
tp89
sI79
(S'/home/talissa/repos/crabpy/crabpy/tests/gateway/test_crab.py'
g59
S'CrabCachedGatewayTests.test_list_huisnummers_by_straat_different_sort'
tp90
sI80
(S'/home/talissa/repos/crabpy/crabpy/tests/gateway/test_crab.py'
g59
S'CrabCachedGatewayTests.test_list_organisaties'
tp91
sI81
(S'/home/talissa/repos/crabpy/crabpy/tests/gateway/test_crab.py'
g59
S'CrabCachedGatewayTests.test_list_organisaties_different_sort'
tp92
sI82
(S'/home/talissa/repos/crabpy/crabpy/tests/gateway/test_crab.py'
g59
S'CrabCachedGatewayTests.test_list_postkantons_by_gemeente'
tp93
sI83
(S'/home/talissa/repos/crabpy/crabpy/tests/gateway/test_crab.py'
g59
S'CrabCachedGatewayTests.test_list_statusgebouwen'
tp94
sI84
(S'/home/talissa/repos/crabpy/crabpy/tests/gateway/test_crab.py'
g59
S'CrabCachedGatewayTests.test_list_statusgebouwen_different_sort'
tp95
sI85
(S'/home/talissa/repos/crabpy/crabpy/tests/gateway/test_crab.py'
g59
S'CrabCachedGatewayTests.test_list_statushuisnummers'
tp96
sI86
(S'/home/talissa/repos/crabpy/crabpy/tests/gateway/test_crab.py'
g59
S'CrabCachedGatewayTests.test_list_statushuisnummers_different_sort'
tp97
sI87
(S'/home/talissa/repos/crabpy/crabpy/tests/gateway/test_crab.py'
g59
S'CrabCachedGatewayTests.test_list_statusstraatnamen'
tp98
sI88
(S'/home/talissa/repos/crabpy/crabpy/tests/gateway/test_crab.py'
g59
S'CrabCachedGatewayTests.test_list_statusstraatnamen_different_sort'
tp99
sI89
(S'/home/talissa/repos/crabpy/crabpy/tests/gateway/test_crab.py'
g59
S'CrabCachedGatewayTests.test_list_statussubadressen'
tp100
sI90
(S'/home/talissa/repos/crabpy/crabpy/tests/gateway/test_crab.py'
g59
S'CrabCachedGatewayTests.test_list_statussubadressen_different_sort'
tp101
sI91
(S'/home/talissa/repos/crabpy/crabpy/tests/gateway/test_crab.py'
g59
S'CrabCachedGatewayTests.test_list_statuswegsegmenten'
tp102
sI92
(S'/home/talissa/repos/crabpy/crabpy/tests/gateway/test_crab.py'
g59
S'CrabCachedGatewayTests.test_list_statuswegsegmenten_different_sort'
tp103
sI93
(S'/home/talissa/repos/crabpy/crabpy/tests/gateway/test_crab.py'
g59
S'CrabCachedGatewayTests.test_list_straten'
tp104
sI94
(S'/home/talissa/repos/crabpy/crabpy/tests/gateway/test_crab.py'
g59
S'CrabCachedGatewayTests.test_list_straten_different_sort'
tp105
sI95
(S'/home/talissa/repos/crabpy/crabpy/tests/gateway/test_crab.py'
g59
S'CrabCachedGatewayTests.test_list_talen'
tp106
sI96
(S'/home/talissa/repos/crabpy/crabpy/tests/gateway/test_crab.py'
g59
S'CrabCachedGatewayTests.test_list_talen_different_sort'
tp107
sI97
(S'/home/talissa/repos/crabpy/crabpy/tests/gateway/test_crab.py'
g59
S'CrabCachedGatewayTests.test_list_wegobjecten_by_straat'
tp108
sI98
(S'/home/talissa/repos/crabpy/crabpy/tests/gateway/test_crab.py'
g59
S'CrabCachedGatewayTests.test_list_wegsegmenten_by_straat'
tp109
sI99
(S'/home/talissa/repos/crabpy/crabpy/tests/gateway/test_crab.py'
g59
S'CrabGatewayTests.test_get_gemeente_by_id'
tp110
sI100
(S'/home/talissa/repos/crabpy/crabpy/tests/gateway/test_crab.py'
g59
S'CrabGatewayTests.test_get_gemeente_by_niscode'
tp111
sI101
(S'/home/talissa/repos/crabpy/crabpy/tests/gateway/test_crab.py'
g59
S'CrabGatewayTests.test_get_huisnummer_by_id'
tp112
sI102
(S'/home/talissa/repos/crabpy/crabpy/tests/gateway/test_crab.py'
g59
S'CrabGatewayTests.test_get_huisnummer_by_nummer_and_straat'
tp113
sI103
(S'/home/talissa/repos/crabpy/crabpy/tests/gateway/test_crab.py'
g59
S'CrabGatewayTests.test_get_postkanton_by_huisnummer'
tp114
sI104
(S'/home/talissa/repos/crabpy/crabpy/tests/gateway/test_crab.py'
g59
S'CrabGatewayTests.test_get_straat_by_id'
tp115
sI105
(S'/home/talissa/repos/crabpy/crabpy/tests/gateway/test_crab.py'
g59
S'CrabGatewayTests.test_get_wegobject_by_id'
tp116
sI106
(S'/home/talissa/repos/crabpy/crabpy/tests/gateway/test_crab.py'
g59
S'CrabGatewayTests.test_get_wegsegment_by_id'
tp117
sI107
(S'/home/talissa/repos/crabpy/crabpy/tests/gateway/test_crab.py'
g59
S'CrabGatewayTests.test_list_aardadressen'
tp118
sI108
(S'/home/talissa/repos/crabpy/crabpy/tests/gateway/test_crab.py'
g59
S'CrabGatewayTests.test_list_aardgebouwen'
tp119
sI109
(S'/home/talissa/repos/crabpy/crabpy/tests/gateway/test_crab.py'
g59
S'CrabGatewayTests.test_list_aardsubadressen'
tp120
sI110
(S'/home/talissa/repos/crabpy/crabpy/tests/gateway/test_crab.py'
g59
S'CrabGatewayTests.test_list_aardterreinobjecten'
tp121
sI111
(S'/home/talissa/repos/crabpy/crabpy/tests/gateway/test_crab.py'
g59
S'CrabGatewayTests.test_list_aarwegobjecten'
tp122
sI112
(S'/home/talissa/repos/crabpy/crabpy/tests/gateway/test_crab.py'
g59
S'CrabGatewayTests.test_list_bewerkingen'
tp123
sI113
(S'/home/talissa/repos/crabpy/crabpy/tests/gateway/test_crab.py'
g59
S'CrabGatewayTests.test_list_gemeenten'
tp124
sI114
(S'/home/talissa/repos/crabpy/crabpy/tests/gateway/test_crab.py'
g59
S'CrabGatewayTests.test_list_gemetriemethodegebouwen'
tp125
sI115
(S'/home/talissa/repos/crabpy/crabpy/tests/gateway/test_crab.py'
g59
S'CrabGatewayTests.test_list_geometriemethodewegsegmenten'
tp126
sI116
(S'/home/talissa/repos/crabpy/crabpy/tests/gateway/test_crab.py'
g59
S'CrabGatewayTests.test_list_gewesten'
tp127
sI117
(S'/home/talissa/repos/crabpy/crabpy/tests/gateway/test_crab.py'
g59
S'CrabGatewayTests.test_list_herkomstadrespositie'
tp128
sI118
(S'/home/talissa/repos/crabpy/crabpy/tests/gateway/test_crab.py'
g59
S'CrabGatewayTests.test_list_huisnummers_by_straat'
tp129
sI119
(S'/home/talissa/repos/crabpy/crabpy/tests/gateway/test_crab.py'
g59
S'CrabGatewayTests.test_list_organisaties'
tp130
sI120
(S'/home/talissa/repos/crabpy/crabpy/tests/gateway/test_crab.py'
g59
S'CrabGatewayTests.test_list_postkantons_by_gemeente'
tp131
sI121
(S'/home/talissa/repos/crabpy/crabpy/tests/gateway/test_crab.py'
g59
S'CrabGatewayTests.test_list_statusgebouwen'
tp132
sI122
(S'/home/talissa/repos/crabpy/crabpy/tests/gateway/test_crab.py'
g59
S'CrabGatewayTests.test_list_statushuisnummers'
tp133
sI123
(S'/home/talissa/repos/crabpy/crabpy/tests/gateway/test_crab.py'
g59
S'CrabGatewayTests.test_list_statusstraatnamen'
tp134
sI124
(S'/home/talissa/repos/crabpy/crabpy/tests/gateway/test_crab.py'
g59
S'CrabGatewayTests.test_list_statussubadressen'
tp135
sI125
(S'/home/talissa/repos/crabpy/crabpy/tests/gateway/test_crab.py'
g59
S'CrabGatewayTests.test_list_statuswegsegmenten'
tp136
sI126
(S'/home/talissa/repos/crabpy/crabpy/tests/gateway/test_crab.py'
g59
S'CrabGatewayTests.test_list_straten'
tp137
sI127
(S'/home/talissa/repos/crabpy/crabpy/tests/gateway/test_crab.py'
g59
S'CrabGatewayTests.test_list_talen'
tp138
sI128
(S'/home/talissa/repos/crabpy/crabpy/tests/gateway/test_crab.py'
g59
S'CrabGatewayTests.test_list_wegobjecten_by_straat'
tp139
sI129
(S'/home/talissa/repos/crabpy/crabpy/tests/gateway/test_crab.py'
g59
S'CrabGatewayTests.test_list_wegsegmenten_by_straat'
tp140
sI130
(S'/home/talissa/repos/crabpy/crabpy/tests/gateway/test_crab.py'
g59
S'GemeenteTests.test_check_gateway_not_set'
tp141
sI131
(S'/home/talissa/repos/crabpy/crabpy/tests/gateway/test_crab.py'
g59
S'GemeenteTests.test_fully_initialised'
tp142
sI132
(S'/home/talissa/repos/crabpy/crabpy/tests/gateway/test_crab.py'
g59
S'GemeenteTests.test_lazy_load'
tp143
sI133
(S'/home/talissa/repos/crabpy/crabpy/tests/gateway/test_crab.py'
g59
S'GemeenteTests.test_postkantons'
tp144
sI134
(S'/home/talissa/repos/crabpy/crabpy/tests/gateway/test_crab.py'
g59
S'GemeenteTests.test_str_and_repr_dont_lazy_load'
tp145
sI135
(S'/home/talissa/repos/crabpy/crabpy/tests/gateway/test_crab.py'
g59
S'GemeenteTests.test_straten'
tp146
sI136
(S'/home/talissa/repos/crabpy/crabpy/tests/gateway/test_crab.py'
g59
S'GewestTests.test_check_gateway_not_set'
tp147
sI137
(S'/home/talissa/repos/crabpy/crabpy/tests/gateway/test_crab.py'
g59
S'GewestTests.test_fully_initialised'
tp148
sI138
(S'/home/talissa/repos/crabpy/crabpy/tests/gateway/test_crab.py'
g59
S'GewestTests.test_gemeenten'
tp149
sI139
(S'/home/talissa/repos/crabpy/crabpy/tests/gateway/test_crab.py'
g59
S'GewestTests.test_str_and_repr_dont_lazy_load'
tp150
sI140
(S'/home/talissa/repos/crabpy/crabpy/tests/gateway/test_crab.py'
g59
S'HuisnummerTests.test_check_gateway_not_set'
tp151
sI141
(S'/home/talissa/repos/crabpy/crabpy/tests/gateway/test_crab.py'
g59
S'HuisnummerTests.test_fully_initialised'
tp152
sI142
(S'/home/talissa/repos/crabpy/crabpy/tests/gateway/test_crab.py'
g59
S'HuisnummerTests.test_postkanton'
tp153
sI143
(S'/home/talissa/repos/crabpy/crabpy/tests/gateway/test_crab.py'
g59
S'HuisnummerTests.test_status'
tp154
sI144
(S'/home/talissa/repos/crabpy/crabpy/tests/gateway/test_crab.py'
g59
S'PostkantonTests.test_fully_initialised'
tp155
sI145
(S'/home/talissa/repos/crabpy/crabpy/tests/gateway/test_crab.py'
g59
S'StraatTests.test_check_gateway_not_set'
tp156
sI146
(S'/home/talissa/repos/crabpy/crabpy/tests/gateway/test_crab.py'
g59
S'StraatTests.test_fully_initialised'
tp157
sI147
(S'/home/talissa/repos/crabpy/crabpy/tests/gateway/test_crab.py'
g59
S'StraatTests.test_gemeente'
tp158
sI148
(S'/home/talissa/repos/crabpy/crabpy/tests/gateway/test_crab.py'
g59
S'StraatTests.test_huisnummers'
tp159
sI149
(S'/home/talissa/repos/crabpy/crabpy/tests/gateway/test_crab.py'
g59
S'StraatTests.test_lazy_load'
tp160
sI150
(S'/home/talissa/repos/crabpy/crabpy/tests/gateway/test_crab.py'
g59
S'StraatTests.test_status'
tp161
sI151
(S'/home/talissa/repos/crabpy/crabpy/tests/gateway/test_crab.py'
g59
S'StraatTests.test_str_and_repr_dont_lazy_load'
tp162
sI152
(S'/home/talissa/repos/crabpy/crabpy/tests/gateway/test_crab.py'
g59
S'StraatTests.test_taal_id'
tp163
sI153
(S'/home/talissa/repos/crabpy/crabpy/tests/gateway/test_crab.py'
g59
S'TaalTests.test_fully_initialised'
tp164
sI154
(S'/home/talissa/repos/crabpy/crabpy/tests/gateway/test_crab.py'
g59
S'WegobjectTests.test_aard'
tp165
sI155
(S'/home/talissa/repos/crabpy/crabpy/tests/gateway/test_crab.py'
g59
S'WegobjectTests.test_check_gateway_not_set'
tp166
sI156
(S'/home/talissa/repos/crabpy/crabpy/tests/gateway/test_crab.py'
g59
S'WegobjectTests.test_fully_initialised'
tp167
sI157
(S'/home/talissa/repos/crabpy/crabpy/tests/gateway/test_crab.py'
g59
S'WegobjectTests.test_lazy_load'
tp168
sI158
(S'/home/talissa/repos/crabpy/crabpy/tests/gateway/test_crab.py'
g59
S'WegsegmentTests.test_check_gateway_not_set'
tp169
sI159
(S'/home/talissa/repos/crabpy/crabpy/tests/gateway/test_crab.py'
g59
S'WegsegmentTests.test_fully_initialised'
tp170
sI160
(S'/home/talissa/repos/crabpy/crabpy/tests/gateway/test_crab.py'
g59
S'WegsegmentTests.test_lazy_load'
tp171
sI161
(S'/home/talissa/repos/crabpy/crabpy/tests/gateway/test_crab.py'
g59
S'WegsegmentTests.test_methode'
tp172
sI162
(S'/home/talissa/repos/crabpy/crabpy/tests/gateway/test_crab.py'
g59
S'WegsegmentTests.test_status'
tp173
sI163
(S'/home/talissa/repos/crabpy/crabpy/tests/gateway/test_exception.py'
S'crabpy.tests.gateway.test_exception'
S'ExceptionTests.test_inheritance'
tp174
sI164
(S'/home/talissa/repos/crabpy/crabpy/tests/test_client.py'
S'crabpy.tests.test_client'
p175
S'CapakeyClientTests.test_list_gemeenten'
tp176
sI165
(S'/home/talissa/repos/crabpy/crabpy/tests/test_client.py'
g175
S'CapakeyClientTests.test_override_wsdl'
tp177
sI166
(S'/home/talissa/repos/crabpy/crabpy/tests/test_client.py'
g175
S'CapakeyClientTests.test_user_and_password_must_be_set'
tp178
sI167
(S'/home/talissa/repos/crabpy/crabpy/tests/test_client.py'
g175
S'CrabClientTests.test_list_gemeenten'
tp179
sI168
(S'/home/talissa/repos/crabpy/crabpy/tests/test_client.py'
g175
S'CrabClientTests.test_override_wsdl'
tp180
sI169
(S'/home/talissa/repos/crabpy/crabpy/tests/test_wsa.py'
S'crabpy.tests.test_wsa'
p181
S'ElementTests.testAction'
tp182
sI170
(S'/home/talissa/repos/crabpy/crabpy/tests/test_wsa.py'
g181
S'ElementTests.testMessageId'
tp183
sI171
(S'/home/talissa/repos/crabpy/crabpy/tests/test_wsa.py'
g181
S'ElementTests.testTo'
tp184
sI172
(S'/home/talissa/repos/crabpy/crabpy/tests/test_wsse.py'
S'crabpy.tests.test_wsse'
p185
S'UsernameDigestTokenTests.test_set_custom_nonce'
tp186
sI173
(S'/home/talissa/repos/crabpy/crabpy/tests/test_wsse.py'
g185
S'UsernameDigestTokenTests.test_simple'
tp187
sI174
(S'/home/talissa/repos/crabpy/crabpy/tests/gateway/test_crab.py'
S'crabpy.tests.gateway.test_crab'
p188
S'CrabCachedGatewayTests.test_get_perceel_by_id'
tp189
sI175
(S'/home/talissa/repos/crabpy/crabpy/tests/gateway/test_crab.py'
g188
S'CrabCachedGatewayTests.test_get_terreinobject_by_id'
tp190
sI176
(S'/home/talissa/repos/crabpy/crabpy/tests/gateway/test_crab.py'
g188
S'CrabCachedGatewayTests.test_list_percelen_by_huisnummer'
tp191
sI177
(S'/home/talissa/repos/crabpy/crabpy/tests/gateway/test_crab.py'
g188
S'CrabCachedGatewayTests.test_list_terreinobjecten_by_huisnummer'
tp192
sI178
(S'/home/talissa/repos/crabpy/crabpy/tests/gateway/test_crab.py'
g188
S'CrabGatewayTests.test_get_perceel_by_id'
tp193
sI179
(S'/home/talissa/repos/crabpy/crabpy/tests/gateway/test_crab.py'
g188
S'CrabGatewayTests.test_get_terreinobject_by_id'
tp194
sI180
(S'/home/talissa/repos/crabpy/crabpy/tests/gateway/test_crab.py'
g188
S'CrabGatewayTests.test_list_percelen_by_huisnummer'
tp195
sI181
(S'/home/talissa/repos/crabpy/crabpy/tests/gateway/test_crab.py'
g188
S'CrabGatewayTests.test_list_terreinobjecten_by_huisnummer'
tp196
sI182
(S'/home/talissa/repos/crabpy/crabpy/tests/gateway/test_crab.py'
g188
S'PerceelTests.test_fully_initialised'
tp197
sI183
(S'/home/talissa/repos/crabpy/crabpy/tests/gateway/test_crab.py'
g188
S'PerceelTests.test_lazy_load'
tp198
sI184
(S'/home/talissa/repos/crabpy/crabpy/tests/gateway/test_crab.py'
g188
S'TerreinobjectTests.test_aard'
tp199
sI185
(S'/home/talissa/repos/crabpy/crabpy/tests/gateway/test_crab.py'
g188
S'TerreinobjectTests.test_fully_initialised'
tp200
sI186
(S'/home/talissa/repos/crabpy/crabpy/tests/gateway/test_crab.py'
g188
S'TerreinobjectTests.test_lazy_load'
tp201
sI187
(S'/home/talissa/repos/crabpy/crabpy/tests/gateway/test_crab.py'
S'crabpy.tests.gateway.test_crab'
p202
S'CrabCachedGatewayTests.test_get_gebouw_by_id'
tp203
sI188
(S'/home/talissa/repos/crabpy/crabpy/tests/gateway/test_crab.py'
g202
S'CrabCachedGatewayTests.test_list_gebouwen_by_huisnummer'
tp204
sI189
(S'/home/talissa/repos/crabpy/crabpy/tests/gateway/test_crab.py'
g202
S'CrabGatewayTests.test_get_gebouw_by_id'
tp205
sI190
(S'/home/talissa/repos/crabpy/crabpy/tests/gateway/test_crab.py'
g202
S'CrabGatewayTests.test_list_gebouwen_by_huisnummer'
tp206
sI191
(S'/home/talissa/repos/crabpy/crabpy/tests/gateway/test_crab.py'
g202
S'GebouwTests.test_aard'
tp207
sI192
(S'/home/talissa/repos/crabpy/crabpy/tests/gateway/test_crab.py'
g202
S'GebouwTests.test_fully_initialised'
tp208
sI193
(S'/home/talissa/repos/crabpy/crabpy/tests/gateway/test_crab.py'
g202
S'GebouwTests.test_lazy_load'
tp209
sI194
(S'/home/talissa/repos/crabpy/crabpy/tests/gateway/test_crab.py'
g202
S'GebouwTests.test_methode'
tp210
sI195
(S'/home/talissa/repos/crabpy/crabpy/tests/gateway/test_crab.py'
g202
S'GebouwTests.test_status'
tp211
sI196
(S'/home/talissa/repos/crabpy/crabpy/tests/gateway/test_crab.py'
S'crabpy.tests.gateway.test_crab'
p212
S'HuisnummerTests.test_gebouwen'
tp213
sI197
(S'/home/talissa/repos/crabpy/crabpy/tests/gateway/test_crab.py'
g212
S'HuisnummerTests.test_lazy_load'
tp214
sI198
(S'/home/talissa/repos/crabpy/crabpy/tests/gateway/test_crab.py'
g212
S'HuisnummerTests.test_percelen'
tp215
sI199
(S'/home/talissa/repos/crabpy/crabpy/tests/gateway/test_crab.py'
g212
S'HuisnummerTests.test_terreinobjecten'
tp216
ss.