(dp1
S'failed'
p2
(lp3
sS'source_names'
p4
(lp5
S'.'
asS'ids'
p6
(dp7
I1
(S'/home/talissa/repos/crabpy/crabpy/tests/gateway/test_capakey.py'
S'crabpy.tests.gateway.test_capakey'
p8
S'AfdelingTests.test_check_gateway_not_set'
tp9
sI2
(S'/home/talissa/repos/crabpy/crabpy/tests/gateway/test_capakey.py'
g8
S'AfdelingTests.test_fully_initialised'
tp10
sI3
(S'/home/talissa/repos/crabpy/crabpy/tests/gateway/test_capakey.py'
g8
S'AfdelingTests.test_lazy_load'
tp11
sI4
(S'/home/talissa/repos/crabpy/crabpy/tests/gateway/test_capakey.py'
g8
S'AfdelingTests.test_secties'
tp12
sI5
(S'/home/talissa/repos/crabpy/crabpy/tests/gateway/test_capakey.py'
g8
S'AfdelingTests.test_to_string_not_fully_initialised'
tp13
sI6
(S'/home/talissa/repos/crabpy/crabpy/tests/gateway/test_capakey.py'
g8
S'CapakeyCachedGatewayTests.test_cache_is_configured'
tp14
sI7
(S'/home/talissa/repos/crabpy/crabpy/tests/gateway/test_capakey.py'
g8
S'CapakeyCachedGatewayTests.test_get_gemeente_by_id'
tp15
sI8
(S'/home/talissa/repos/crabpy/crabpy/tests/gateway/test_capakey.py'
g8
S'CapakeyCachedGatewayTests.test_get_kadastrale_afdeling_by_id'
tp16
sI9
(S'/home/talissa/repos/crabpy/crabpy/tests/gateway/test_capakey.py'
g8
S'CapakeyCachedGatewayTests.test_get_perceel_by_capakey'
tp17
sI10
(S'/home/talissa/repos/crabpy/crabpy/tests/gateway/test_capakey.py'
g8
S'CapakeyCachedGatewayTests.test_get_perceel_by_id_and_sectie'
tp18
sI11
(S'/home/talissa/repos/crabpy/crabpy/tests/gateway/test_capakey.py'
g8
S'CapakeyCachedGatewayTests.test_get_perceel_by_percid'
tp19
sI12
(S'/home/talissa/repos/crabpy/crabpy/tests/gateway/test_capakey.py'
g8
S'CapakeyCachedGatewayTests.test_get_sectie_by_id_and_afdeling'
tp20
sI13
(S'/home/talissa/repos/crabpy/crabpy/tests/gateway/test_capakey.py'
g8
S'CapakeyCachedGatewayTests.test_list_afdelingen'
tp21
sI14
(S'/home/talissa/repos/crabpy/crabpy/tests/gateway/test_capakey.py'
g8
S'CapakeyCachedGatewayTests.test_list_afdelingen_by_gemeente'
tp22
sI15
(S'/home/talissa/repos/crabpy/crabpy/tests/gateway/test_capakey.py'
g8
S'CapakeyCachedGatewayTests.test_list_gemeenten'
tp23
sI16
(S'/home/talissa/repos/crabpy/crabpy/tests/gateway/test_capakey.py'
g8
S'CapakeyCachedGatewayTests.test_list_gemeenten_different_sort'
tp24
sI17
(S'/home/talissa/repos/crabpy/crabpy/tests/gateway/test_capakey.py'
g8
S'CapakeyCachedGatewayTests.test_list_percelen_by_sectie'
tp25
sI18
(S'/home/talissa/repos/crabpy/crabpy/tests/gateway/test_capakey.py'
g8
S'CapakeyCachedGatewayTests.test_list_secties_by_afdeling_id'
tp26
sI19
(S'/home/talissa/repos/crabpy/crabpy/tests/gateway/test_capakey.py'
g8
S'CapakeyGatewayTests.test_get_gemeente_by_id'
tp27
sI20
(S'/home/talissa/repos/crabpy/crabpy/tests/gateway/test_capakey.py'
g8
S'CapakeyGatewayTests.test_get_gemeente_by_invalid_id'
tp28
sI21
(S'/home/talissa/repos/crabpy/crabpy/tests/gateway/test_capakey.py'
g8
S'CapakeyGatewayTests.test_get_kadastrale_afdeling_by_id'
tp29
sI22
(S'/home/talissa/repos/crabpy/crabpy/tests/gateway/test_capakey.py'
g8
S'CapakeyGatewayTests.test_get_perceel_by_capakey'
tp30
sI23
(S'/home/talissa/repos/crabpy/crabpy/tests/gateway/test_capakey.py'
g8
S'CapakeyGatewayTests.test_get_perceel_by_id_and_sectie'
tp31
sI24
(S'/home/talissa/repos/crabpy/crabpy/tests/gateway/test_capakey.py'
g8
S'CapakeyGatewayTests.test_get_perceel_by_percid'
tp32
sI25
(S'/home/talissa/repos/crabpy/crabpy/tests/gateway/test_capakey.py'
g8
S'CapakeyGatewayTests.test_get_sectie_by_id_and_afdeling'
tp33
sI26
(S'/home/talissa/repos/crabpy/crabpy/tests/gateway/test_capakey.py'
g8
S'CapakeyGatewayTests.test_list_afdelingen'
tp34
sI27
(S'/home/talissa/repos/crabpy/crabpy/tests/gateway/test_capakey.py'
g8
S'CapakeyGatewayTests.test_list_afdelingen_by_gemeente'
tp35
sI28
(S'/home/talissa/repos/crabpy/crabpy/tests/gateway/test_capakey.py'
g8
S'CapakeyGatewayTests.test_list_afdelingen_by_gemeente_id'
tp36
sI29
(S'/home/talissa/repos/crabpy/crabpy/tests/gateway/test_capakey.py'
g8
S'CapakeyGatewayTests.test_list_gemeenten'
tp37
sI30
(S'/home/talissa/repos/crabpy/crabpy/tests/gateway/test_capakey.py'
g8
S'CapakeyGatewayTests.test_list_gemeenten_invalid_auth'
tp38
sI31
(S'/home/talissa/repos/crabpy/crabpy/tests/gateway/test_capakey.py'
g8
S'CapakeyGatewayTests.test_list_percelen_by_sectie'
tp39
sI32
(S'/home/talissa/repos/crabpy/crabpy/tests/gateway/test_capakey.py'
g8
S'CapakeyGatewayTests.test_list_secties_by_afdeling'
tp40
sI33
(S'/home/talissa/repos/crabpy/crabpy/tests/gateway/test_capakey.py'
g8
S'CapakeyGatewayTests.test_list_secties_by_afdeling_id'
tp41
sI34
(S'/home/talissa/repos/crabpy/crabpy/tests/gateway/test_capakey.py'
g8
S'GemeenteTests.test_afdelingen'
tp42
sI35
(S'/home/talissa/repos/crabpy/crabpy/tests/gateway/test_capakey.py'
g8
S'GemeenteTests.test_check_gateway_not_set'
tp43
sI36
(S'/home/talissa/repos/crabpy/crabpy/tests/gateway/test_capakey.py'
g8
S'GemeenteTests.test_fully_initialised'
tp44
sI37
(S'/home/talissa/repos/crabpy/crabpy/tests/gateway/test_capakey.py'
g8
S'GemeenteTests.test_lazy_load'
tp45
sI38
(S'/home/talissa/repos/crabpy/crabpy/tests/gateway/test_capakey.py'
g8
S'GemeenteTests.test_str_and_repr_dont_lazy_load'
tp46
sI39
(S'/home/talissa/repos/crabpy/crabpy/tests/gateway/test_capakey.py'
g8
S'PerceelTests.test_check_gateway_not_set'
tp47
sI40
(S'/home/talissa/repos/crabpy/crabpy/tests/gateway/test_capakey.py'
g8
S'PerceelTests.test_fully_initialised'
tp48
sI41
(S'/home/talissa/repos/crabpy/crabpy/tests/gateway/test_capakey.py'
g8
S'PerceelTests.test_lazy_load'
tp49
sI42
(S'/home/talissa/repos/crabpy/crabpy/tests/gateway/test_capakey.py'
g8
S'PerceelTests.test_parse_capakey'
tp50
sI43
(S'/home/talissa/repos/crabpy/crabpy/tests/gateway/test_capakey.py'
g8
S'PerceelTests.test_parse_capakey_other_sectie'
tp51
sI44
(S'/home/talissa/repos/crabpy/crabpy/tests/gateway/test_capakey.py'
g8
S'PerceelTests.test_parse_invalid_capakey'
tp52
sI45
(S'/home/talissa/repos/crabpy/crabpy/tests/gateway/test_capakey.py'
g8
S'SectieTests.test_check_gateway_not_set'
tp53
sI46
(S'/home/talissa/repos/crabpy/crabpy/tests/gateway/test_capakey.py'
g8
S'SectieTests.test_fully_initialised'
tp54
sI47
(S'/home/talissa/repos/crabpy/crabpy/tests/gateway/test_capakey.py'
g8
S'SectieTests.test_lazy_load'
tp55
sI48
(S'/home/talissa/repos/crabpy/crabpy/tests/gateway/test_capakey.py'
g8
S'SectieTests.test_percelen'
tp56
sI49
(S'/home/talissa/repos/crabpy/crabpy/tests/gateway/test_crab.py'
S'crabpy.tests.gateway.test_crab'
p57
S'CrabCachedGatewayTests.test_cache_is_configured'
tp58
sI50
(S'/home/talissa/repos/crabpy/crabpy/tests/gateway/test_crab.py'
g57
S'CrabCachedGatewayTests.test_get_gemeente_by_id'
tp59
sI51
(S'/home/talissa/repos/crabpy/crabpy/tests/gateway/test_crab.py'
g57
S'CrabCachedGatewayTests.test_get_gemeente_by_niscode'
tp60
sI52
(S'/home/talissa/repos/crabpy/crabpy/tests/gateway/test_crab.py'
g57
S'CrabCachedGatewayTests.test_get_huisnummer_by_id'
tp61
sI53
(S'/home/talissa/repos/crabpy/crabpy/tests/gateway/test_crab.py'
g57
S'CrabCachedGatewayTests.test_get_huisnummer_by_nummer_and_straat'
tp62
sI54
(S'/home/talissa/repos/crabpy/crabpy/tests/gateway/test_crab.py'
g57
S'CrabCachedGatewayTests.test_get_postkanton_by_huisnummer'
tp63
sI55
(S'/home/talissa/repos/crabpy/crabpy/tests/gateway/test_crab.py'
g57
S'CrabCachedGatewayTests.test_get_straat_by_id'
tp64
sI56
(S'/home/talissa/repos/crabpy/crabpy/tests/gateway/test_crab.py'
g57
S'CrabCachedGatewayTests.test_get_wegobject_by_id'
tp65
sI57
(S'/home/talissa/repos/crabpy/crabpy/tests/gateway/test_crab.py'
g57
S'CrabCachedGatewayTests.test_get_wegsegment_by_id'
tp66
sI58
(S'/home/talissa/repos/crabpy/crabpy/tests/gateway/test_crab.py'
g57
S'CrabCachedGatewayTests.test_list_aardadressen'
tp67
sI59
(S'/home/talissa/repos/crabpy/crabpy/tests/gateway/test_crab.py'
g57
S'CrabCachedGatewayTests.test_list_aardadressen_different_sort'
tp68
sI60
(S'/home/talissa/repos/crabpy/crabpy/tests/gateway/test_crab.py'
g57
S'CrabCachedGatewayTests.test_list_aardgebouwen'
tp69
sI61
(S'/home/talissa/repos/crabpy/crabpy/tests/gateway/test_crab.py'
g57
S'CrabCachedGatewayTests.test_list_aardgebouwen_different_sort'
tp70
sI62
(S'/home/talissa/repos/crabpy/crabpy/tests/gateway/test_crab.py'
g57
S'CrabCachedGatewayTests.test_list_aardterreinobjecten'
tp71
sI63
(S'/home/talissa/repos/crabpy/crabpy/tests/gateway/test_crab.py'
g57
S'CrabCachedGatewayTests.test_list_aardterreinobjecten_different_sort'
tp72
sI64
(S'/home/talissa/repos/crabpy/crabpy/tests/gateway/test_crab.py'
g57
S'CrabCachedGatewayTests.test_list_aardwegobjecten'
tp73
sI65
(S'/home/talissa/repos/crabpy/crabpy/tests/gateway/test_crab.py'
g57
S'CrabCachedGatewayTests.test_list_aardwegobjecten_different_sort'
tp74
sI66
(S'/home/talissa/repos/crabpy/crabpy/tests/gateway/test_crab.py'
g57
S'CrabCachedGatewayTests.test_list_bewerkingen'
tp75
sI67
(S'/home/talissa/repos/crabpy/crabpy/tests/gateway/test_crab.py'
g57
S'CrabCachedGatewayTests.test_list_bewerkingen_different_sort'
tp76
sI68
(S'/home/talissa/repos/crabpy/crabpy/tests/gateway/test_crab.py'
g57
S'CrabCachedGatewayTests.test_list_gemeenten'
tp77
sI69
(S'/home/talissa/repos/crabpy/crabpy/tests/gateway/test_crab.py'
g57
S'CrabCachedGatewayTests.test_list_gemeenten_different_sort'
tp78
sI70
(S'/home/talissa/repos/crabpy/crabpy/tests/gateway/test_crab.py'
g57
S'CrabCachedGatewayTests.test_list_geometriemethodegebouwen'
tp79
sI71
(S'/home/talissa/repos/crabpy/crabpy/tests/gateway/test_crab.py'
g57
S'CrabCachedGatewayTests.test_list_geometriemethodegebouwen_different_sort'
tp80
sI72
(S'/home/talissa/repos/crabpy/crabpy/tests/gateway/test_crab.py'
g57
S'CrabCachedGatewayTests.test_list_geometriemethodewegsegmenten'
tp81
sI73
(S'/home/talissa/repos/crabpy/crabpy/tests/gateway/test_crab.py'
g57
S'CrabCachedGatewayTests.test_list_geometriemethodewegsegmenten_different_sort'
tp82
sI74
(S'/home/talissa/repos/crabpy/crabpy/tests/gateway/test_crab.py'
g57
S'CrabCachedGatewayTests.test_list_gewesten'
tp83
sI75
(S'/home/talissa/repos/crabpy/crabpy/tests/gateway/test_crab.py'
g57
S'CrabCachedGatewayTests.test_list_gewesten_different_sort'
tp84
sI76
(S'/home/talissa/repos/crabpy/crabpy/tests/gateway/test_crab.py'
g57
S'CrabCachedGatewayTests.test_list_herkomstadrespositie'
tp85
sI77
(S'/home/talissa/repos/crabpy/crabpy/tests/gateway/test_crab.py'
g57
S'CrabCachedGatewayTests.test_list_herkomstadrespositie_different_sort'
tp86
sI78
(S'/home/talissa/repos/crabpy/crabpy/tests/gateway/test_crab.py'
g57
S'CrabCachedGatewayTests.test_list_huisnummers_by_straat'
tp87
sI79
(S'/home/talissa/repos/crabpy/crabpy/tests/gateway/test_crab.py'
g57
S'CrabCachedGatewayTests.test_list_huisnummers_by_straat_different_sort'
tp88
sI80
(S'/home/talissa/repos/crabpy/crabpy/tests/gateway/test_crab.py'
g57
S'CrabCachedGatewayTests.test_list_organisaties'
tp89
sI81
(S'/home/talissa/repos/crabpy/crabpy/tests/gateway/test_crab.py'
g57
S'CrabCachedGatewayTests.test_list_organisaties_different_sort'
tp90
sI82
(S'/home/talissa/repos/crabpy/crabpy/tests/gateway/test_crab.py'
g57
S'CrabCachedGatewayTests.test_list_postkantons_by_gemeente'
tp91
sI83
(S'/home/talissa/repos/crabpy/crabpy/tests/gateway/test_crab.py'
g57
S'CrabCachedGatewayTests.test_list_statusgebouwen'
tp92
sI84
(S'/home/talissa/repos/crabpy/crabpy/tests/gateway/test_crab.py'
g57
S'CrabCachedGatewayTests.test_list_statusgebouwen_different_sort'
tp93
sI85
(S'/home/talissa/repos/crabpy/crabpy/tests/gateway/test_crab.py'
g57
S'CrabCachedGatewayTests.test_list_statushuisnummers'
tp94
sI86
(S'/home/talissa/repos/crabpy/crabpy/tests/gateway/test_crab.py'
g57
S'CrabCachedGatewayTests.test_list_statushuisnummers_different_sort'
tp95
sI87
(S'/home/talissa/repos/crabpy/crabpy/tests/gateway/test_crab.py'
g57
S'CrabCachedGatewayTests.test_list_statusstraatnamen'
tp96
sI88
(S'/home/talissa/repos/crabpy/crabpy/tests/gateway/test_crab.py'
g57
S'CrabCachedGatewayTests.test_list_statusstraatnamen_different_sort'
tp97
sI89
(S'/home/talissa/repos/crabpy/crabpy/tests/gateway/test_crab.py'
g57
S'CrabCachedGatewayTests.test_list_statussubadressen'
tp98
sI90
(S'/home/talissa/repos/crabpy/crabpy/tests/gateway/test_crab.py'
g57
S'CrabCachedGatewayTests.test_list_statussubadressen_different_sort'
tp99
sI91
(S'/home/talissa/repos/crabpy/crabpy/tests/gateway/test_crab.py'
g57
S'CrabCachedGatewayTests.test_list_statuswegsegmenten'
tp100
sI92
(S'/home/talissa/repos/crabpy/crabpy/tests/gateway/test_crab.py'
g57
S'CrabCachedGatewayTests.test_list_statuswegsegmenten_different_sort'
tp101
sI93
(S'/home/talissa/repos/crabpy/crabpy/tests/gateway/test_crab.py'
g57
S'CrabCachedGatewayTests.test_list_straten'
tp102
sI94
(S'/home/talissa/repos/crabpy/crabpy/tests/gateway/test_crab.py'
g57
S'CrabCachedGatewayTests.test_list_straten_different_sort'
tp103
sI95
(S'/home/talissa/repos/crabpy/crabpy/tests/gateway/test_crab.py'
g57
S'CrabCachedGatewayTests.test_list_talen'
tp104
sI96
(S'/home/talissa/repos/crabpy/crabpy/tests/gateway/test_crab.py'
g57
S'CrabCachedGatewayTests.test_list_talen_different_sort'
tp105
sI97
(S'/home/talissa/repos/crabpy/crabpy/tests/gateway/test_crab.py'
g57
S'CrabCachedGatewayTests.test_list_wegobjecten_by_straat'
tp106
sI98
(S'/home/talissa/repos/crabpy/crabpy/tests/gateway/test_crab.py'
g57
S'CrabCachedGatewayTests.test_list_wegsegmenten_by_straat'
tp107
sI99
(S'/home/talissa/repos/crabpy/crabpy/tests/gateway/test_crab.py'
g57
S'CrabGatewayTests.test_get_gemeente_by_id'
tp108
sI100
(S'/home/talissa/repos/crabpy/crabpy/tests/gateway/test_crab.py'
g57
S'CrabGatewayTests.test_get_gemeente_by_niscode'
tp109
sI101
(S'/home/talissa/repos/crabpy/crabpy/tests/gateway/test_crab.py'
g57
S'CrabGatewayTests.test_get_huisnummer_by_id'
tp110
sI102
(S'/home/talissa/repos/crabpy/crabpy/tests/gateway/test_crab.py'
g57
S'CrabGatewayTests.test_get_huisnummer_by_nummer_and_straat'
tp111
sI103
(S'/home/talissa/repos/crabpy/crabpy/tests/gateway/test_crab.py'
g57
S'CrabGatewayTests.test_get_postkanton_by_huisnummer'
tp112
sI104
(S'/home/talissa/repos/crabpy/crabpy/tests/gateway/test_crab.py'
g57
S'CrabGatewayTests.test_get_straat_by_id'
tp113
sI105
(S'/home/talissa/repos/crabpy/crabpy/tests/gateway/test_crab.py'
g57
S'CrabGatewayTests.test_get_wegobject_by_id'
tp114
sI106
(S'/home/talissa/repos/crabpy/crabpy/tests/gateway/test_crab.py'
g57
S'CrabGatewayTests.test_get_wegsegment_by_id'
tp115
sI107
(S'/home/talissa/repos/crabpy/crabpy/tests/gateway/test_crab.py'
g57
S'CrabGatewayTests.test_list_aardadressen'
tp116
sI108
(S'/home/talissa/repos/crabpy/crabpy/tests/gateway/test_crab.py'
g57
S'CrabGatewayTests.test_list_aardgebouwen'
tp117
sI109
(S'/home/talissa/repos/crabpy/crabpy/tests/gateway/test_crab.py'
g57
S'CrabGatewayTests.test_list_aardsubadressen'
tp118
sI110
(S'/home/talissa/repos/crabpy/crabpy/tests/gateway/test_crab.py'
g57
S'CrabGatewayTests.test_list_aardterreinobjecten'
tp119
sI111
(S'/home/talissa/repos/crabpy/crabpy/tests/gateway/test_crab.py'
g57
S'CrabGatewayTests.test_list_aarwegobjecten'
tp120
sI112
(S'/home/talissa/repos/crabpy/crabpy/tests/gateway/test_crab.py'
g57
S'CrabGatewayTests.test_list_bewerkingen'
tp121
sI113
(S'/home/talissa/repos/crabpy/crabpy/tests/gateway/test_crab.py'
g57
S'CrabGatewayTests.test_list_gemeenten'
tp122
sI114
(S'/home/talissa/repos/crabpy/crabpy/tests/gateway/test_crab.py'
g57
S'CrabGatewayTests.test_list_gemetriemethodegebouwen'
tp123
sI115
(S'/home/talissa/repos/crabpy/crabpy/tests/gateway/test_crab.py'
g57
S'CrabGatewayTests.test_list_geometriemethodewegsegmenten'
tp124
sI116
(S'/home/talissa/repos/crabpy/crabpy/tests/gateway/test_crab.py'
g57
S'CrabGatewayTests.test_list_gewesten'
tp125
sI117
(S'/home/talissa/repos/crabpy/crabpy/tests/gateway/test_crab.py'
g57
S'CrabGatewayTests.test_list_herkomstadrespositie'
tp126
sI118
(S'/home/talissa/repos/crabpy/crabpy/tests/gateway/test_crab.py'
g57
S'CrabGatewayTests.test_list_huisnummers_by_straat'
tp127
sI119
(S'/home/talissa/repos/crabpy/crabpy/tests/gateway/test_crab.py'
g57
S'CrabGatewayTests.test_list_organisaties'
tp128
sI120
(S'/home/talissa/repos/crabpy/crabpy/tests/gateway/test_crab.py'
g57
S'CrabGatewayTests.test_list_postkantons_by_gemeente'
tp129
sI121
(S'/home/talissa/repos/crabpy/crabpy/tests/gateway/test_crab.py'
g57
S'CrabGatewayTests.test_list_statusgebouwen'
tp130
sI122
(S'/home/talissa/repos/crabpy/crabpy/tests/gateway/test_crab.py'
g57
S'CrabGatewayTests.test_list_statushuisnummers'
tp131
sI123
(S'/home/talissa/repos/crabpy/crabpy/tests/gateway/test_crab.py'
g57
S'CrabGatewayTests.test_list_statusstraatnamen'
tp132
sI124
(S'/home/talissa/repos/crabpy/crabpy/tests/gateway/test_crab.py'
g57
S'CrabGatewayTests.test_list_statussubadressen'
tp133
sI125
(S'/home/talissa/repos/crabpy/crabpy/tests/gateway/test_crab.py'
g57
S'CrabGatewayTests.test_list_statuswegsegmenten'
tp134
sI126
(S'/home/talissa/repos/crabpy/crabpy/tests/gateway/test_crab.py'
g57
S'CrabGatewayTests.test_list_straten'
tp135
sI127
(S'/home/talissa/repos/crabpy/crabpy/tests/gateway/test_crab.py'
g57
S'CrabGatewayTests.test_list_talen'
tp136
sI128
(S'/home/talissa/repos/crabpy/crabpy/tests/gateway/test_crab.py'
g57
S'CrabGatewayTests.test_list_wegobjecten_by_straat'
tp137
sI129
(S'/home/talissa/repos/crabpy/crabpy/tests/gateway/test_crab.py'
g57
S'CrabGatewayTests.test_list_wegsegmenten_by_straat'
tp138
sI130
(S'/home/talissa/repos/crabpy/crabpy/tests/gateway/test_crab.py'
g57
S'GemeenteTests.test_check_gateway_not_set'
tp139
sI131
(S'/home/talissa/repos/crabpy/crabpy/tests/gateway/test_crab.py'
g57
S'GemeenteTests.test_fully_initialised'
tp140
sI132
(S'/home/talissa/repos/crabpy/crabpy/tests/gateway/test_crab.py'
g57
S'GemeenteTests.test_lazy_load'
tp141
sI133
(S'/home/talissa/repos/crabpy/crabpy/tests/gateway/test_crab.py'
g57
S'GemeenteTests.test_postkantons'
tp142
sI134
(S'/home/talissa/repos/crabpy/crabpy/tests/gateway/test_crab.py'
g57
S'GemeenteTests.test_str_and_repr_dont_lazy_load'
tp143
sI135
(S'/home/talissa/repos/crabpy/crabpy/tests/gateway/test_crab.py'
g57
S'GemeenteTests.test_straten'
tp144
sI136
(S'/home/talissa/repos/crabpy/crabpy/tests/gateway/test_crab.py'
g57
S'GewestTests.test_check_gateway_not_set'
tp145
sI137
(S'/home/talissa/repos/crabpy/crabpy/tests/gateway/test_crab.py'
g57
S'GewestTests.test_fully_initialised'
tp146
sI138
(S'/home/talissa/repos/crabpy/crabpy/tests/gateway/test_crab.py'
g57
S'GewestTests.test_gemeenten'
tp147
sI139
(S'/home/talissa/repos/crabpy/crabpy/tests/gateway/test_crab.py'
g57
S'GewestTests.test_str_and_repr_dont_lazy_load'
tp148
sI140
(S'/home/talissa/repos/crabpy/crabpy/tests/gateway/test_crab.py'
g57
S'HuisnummerTests.test_check_gateway_not_set'
tp149
sI141
(S'/home/talissa/repos/crabpy/crabpy/tests/gateway/test_crab.py'
g57
S'HuisnummerTests.test_fully_initialised'
tp150
sI142
(S'/home/talissa/repos/crabpy/crabpy/tests/gateway/test_crab.py'
g57
S'HuisnummerTests.test_postkanton'
tp151
sI143
(S'/home/talissa/repos/crabpy/crabpy/tests/gateway/test_crab.py'
g57
S'HuisnummerTests.test_status'
tp152
sI144
(S'/home/talissa/repos/crabpy/crabpy/tests/gateway/test_crab.py'
g57
S'PostkantonTests.test_fully_initialised'
tp153
sI145
(S'/home/talissa/repos/crabpy/crabpy/tests/gateway/test_crab.py'
g57
S'StraatTests.test_check_gateway_not_set'
tp154
sI146
(S'/home/talissa/repos/crabpy/crabpy/tests/gateway/test_crab.py'
g57
S'StraatTests.test_fully_initialised'
tp155
sI147
(S'/home/talissa/repos/crabpy/crabpy/tests/gateway/test_crab.py'
g57
S'StraatTests.test_gemeente'
tp156
sI148
(S'/home/talissa/repos/crabpy/crabpy/tests/gateway/test_crab.py'
g57
S'StraatTests.test_huisnummers'
tp157
sI149
(S'/home/talissa/repos/crabpy/crabpy/tests/gateway/test_crab.py'
g57
S'StraatTests.test_lazy_load'
tp158
sI150
(S'/home/talissa/repos/crabpy/crabpy/tests/gateway/test_crab.py'
g57
S'StraatTests.test_status'
tp159
sI151
(S'/home/talissa/repos/crabpy/crabpy/tests/gateway/test_crab.py'
g57
S'StraatTests.test_str_and_repr_dont_lazy_load'
tp160
sI152
(S'/home/talissa/repos/crabpy/crabpy/tests/gateway/test_crab.py'
g57
S'StraatTests.test_taal_id'
tp161
sI153
(S'/home/talissa/repos/crabpy/crabpy/tests/gateway/test_crab.py'
g57
S'TaalTests.test_fully_initialised'
tp162
sI154
(S'/home/talissa/repos/crabpy/crabpy/tests/gateway/test_crab.py'
g57
S'WegobjectTests.test_aard'
tp163
sI155
(S'/home/talissa/repos/crabpy/crabpy/tests/gateway/test_crab.py'
g57
S'WegobjectTests.test_check_gateway_not_set'
tp164
sI156
(S'/home/talissa/repos/crabpy/crabpy/tests/gateway/test_crab.py'
g57
S'WegobjectTests.test_fully_initialised'
tp165
sI157
(S'/home/talissa/repos/crabpy/crabpy/tests/gateway/test_crab.py'
g57
S'WegobjectTests.test_lazy_load'
tp166
sI158
(S'/home/talissa/repos/crabpy/crabpy/tests/gateway/test_crab.py'
g57
S'WegsegmentTests.test_check_gateway_not_set'
tp167
sI159
(S'/home/talissa/repos/crabpy/crabpy/tests/gateway/test_crab.py'
g57
S'WegsegmentTests.test_fully_initialised'
tp168
sI160
(S'/home/talissa/repos/crabpy/crabpy/tests/gateway/test_crab.py'
g57
S'WegsegmentTests.test_lazy_load'
tp169
sI161
(S'/home/talissa/repos/crabpy/crabpy/tests/gateway/test_crab.py'
g57
S'WegsegmentTests.test_methode'
tp170
sI162
(S'/home/talissa/repos/crabpy/crabpy/tests/gateway/test_crab.py'
g57
S'WegsegmentTests.test_status'
tp171
sI163
(S'/home/talissa/repos/crabpy/crabpy/tests/gateway/test_exception.py'
S'crabpy.tests.gateway.test_exception'
S'ExceptionTests.test_inheritance'
tp172
sI164
(S'/home/talissa/repos/crabpy/crabpy/tests/test_client.py'
S'crabpy.tests.test_client'
p173
S'CapakeyClientTests.test_list_gemeenten'
tp174
sI165
(S'/home/talissa/repos/crabpy/crabpy/tests/test_client.py'
g173
S'CapakeyClientTests.test_override_wsdl'
tp175
sI166
(S'/home/talissa/repos/crabpy/crabpy/tests/test_client.py'
g173
S'CapakeyClientTests.test_user_and_password_must_be_set'
tp176
sI167
(S'/home/talissa/repos/crabpy/crabpy/tests/test_client.py'
g173
S'CrabClientTests.test_list_gemeenten'
tp177
sI168
(S'/home/talissa/repos/crabpy/crabpy/tests/test_client.py'
g173
S'CrabClientTests.test_override_wsdl'
tp178
sI169
(S'/home/talissa/repos/crabpy/crabpy/tests/test_wsa.py'
S'crabpy.tests.test_wsa'
p179
S'ElementTests.testAction'
tp180
sI170
(S'/home/talissa/repos/crabpy/crabpy/tests/test_wsa.py'
g179
S'ElementTests.testMessageId'
tp181
sI171
(S'/home/talissa/repos/crabpy/crabpy/tests/test_wsa.py'
g179
S'ElementTests.testTo'
tp182
sI172
(S'/home/talissa/repos/crabpy/crabpy/tests/test_wsse.py'
S'crabpy.tests.test_wsse'
p183
S'UsernameDigestTokenTests.test_set_custom_nonce'
tp184
sI173
(S'/home/talissa/repos/crabpy/crabpy/tests/test_wsse.py'
g183
S'UsernameDigestTokenTests.test_simple'
tp185
ss.